; Function Attrs: nounwind uwtable
define internal noundef i32 @_foreach_check_duplicates(ptr noundef %0, ptr noundef %1) #0 {
  %3 = tail call ptr @list_find_first(ptr noundef %1, ptr noundef nonnull @_cmp_str, ptr noundef %0) #10
  %.not = icmp eq ptr %3, null
  br i1 %.not, label %4, label %6

4:                                                ; preds = %2
  %5 = tail call ptr @xstrdup(ptr noundef %0) #10
  tail call void @list_append(ptr noundef %1, ptr noundef %5) #10
  br label %6

6:                                                ; preds = %4, %2
  ret i32 0
}